target datalayout = "e-m:e-p270:32:32-p271:32:32-p272:64:64-i64:64-i128:128-f80:128-n8:16:32:64-S128"
target triple = "x86_64-pc-linux-gnu"

@hf_bthci_evt_num_handles = internal global i32 0, align 4
@hf_bthci_evt_connection_handle = internal global i32 0, align 4
@hf_bthci_evt_num_compl_packets = internal global i32 0, align 4
@hf_bthci_evt_total_num_data_blocks = internal global i32 0, align 4
@hf_bthci_evt_num_compl_blocks = internal global i32 0, align 4

; Function Attrs: null_pointer_is_valid sspstrong uwtable
define internal i32 @dissect_bthci_evt_number_of_completed_data_blocks(ptr noundef %0, i32 noundef %1, ptr noundef %2, ptr noundef %3) #1 {
  %5 = alloca ptr, align 8
  %6 = alloca i32, align 4
  %7 = alloca ptr, align 8
  %8 = alloca ptr, align 8
  %9 = alloca i8, align 1
  store ptr %0, ptr %5, align 8
  store i32 %1, ptr %6, align 4
  store ptr %2, ptr %7, align 8
  store ptr %3, ptr %8, align 8
  call void @llvm.lifetime.start.p0(i64 1, ptr %9) #11
  %10 = load ptr, ptr %8, align 8
  %11 = load i32, ptr @hf_bthci_evt_total_num_data_blocks, align 4
  %12 = load ptr, ptr %5, align 8
  %13 = load i32, ptr %6, align 4
  %14 = call ptr @proto_tree_add_item(ptr noundef %10, i32 noundef %11, ptr noundef %12, i32 noundef %13, i32 noundef 2, i32 noundef -2147483648)
  %15 = load i32, ptr %6, align 4
  %16 = add i32 %15, 2
  store i32 %16, ptr %6, align 4
  %17 = load ptr, ptr %5, align 8
  %18 = load i32, ptr %6, align 4
  %19 = call zeroext i8 @tvb_get_uint8(ptr noundef %17, i32 noundef %18)
  store i8 %19, ptr %9, align 1
  %20 = load ptr, ptr %8, align 8
  %21 = load i32, ptr @hf_bthci_evt_num_handles, align 4
  %22 = load ptr, ptr %5, align 8
  %23 = load i32, ptr %6, align 4
  %24 = call ptr @proto_tree_add_item(ptr noundef %20, i32 noundef %21, ptr noundef %22, i32 noundef %23, i32 noundef 1, i32 noundef -2147483648)
  %25 = load i32, ptr %6, align 4
  %26 = add i32 %25, 1
  store i32 %26, ptr %6, align 4
  br label %27

27:                                               ; preds = %31, %4
  %28 = load i8, ptr %9, align 1
  %29 = add i8 %28, -1
  store i8 %29, ptr %9, align 1
  %30 = icmp ne i8 %28, 0
  br i1 %30, label %31, label %53

31:                                               ; preds = %27
  %32 = load ptr, ptr %8, align 8
  %33 = load i32, ptr @hf_bthci_evt_connection_handle, align 4
  %34 = load ptr, ptr %5, align 8
  %35 = load i32, ptr %6, align 4
  %36 = call ptr @proto_tree_add_item(ptr noundef %32, i32 noundef %33, ptr noundef %34, i32 noundef %35, i32 noundef 2, i32 noundef -2147483648)
  %37 = load i32, ptr %6, align 4
  %38 = add i32 %37, 2
  store i32 %38, ptr %6, align 4
  %39 = load ptr, ptr %8, align 8
  %40 = load i32, ptr @hf_bthci_evt_num_compl_packets, align 4
  %41 = load ptr, ptr %5, align 8
  %42 = load i32, ptr %6, align 4
  %43 = call ptr @proto_tree_add_item(ptr noundef %39, i32 noundef %40, ptr noundef %41, i32 noundef %42, i32 noundef 2, i32 noundef -2147483648)
  %44 = load i32, ptr %6, align 4
  %45 = add i32 %44, 2
  store i32 %45, ptr %6, align 4
  %46 = load ptr, ptr %8, align 8
  %47 = load i32, ptr @hf_bthci_evt_num_compl_blocks, align 4
  %48 = load ptr, ptr %5, align 8
  %49 = load i32, ptr %6, align 4
  %50 = call ptr @proto_tree_add_item(ptr noundef %46, i32 noundef %47, ptr noundef %48, i32 noundef %49, i32 noundef 2, i32 noundef -2147483648)
  %51 = load i32, ptr %6, align 4
  %52 = add i32 %51, 2
  store i32 %52, ptr %6, align 4
  br label %27, !llvm.loop !30

53:                                               ; preds = %27
  %54 = load i32, ptr %6, align 4
  call void @llvm.lifetime.end.p0(i64 1, ptr %9) #11
  ret i32 %54
}