; Function Attrs: null_pointer_is_valid sspstrong uwtable
define internal fastcc range(i32 5, 0) i32 @dissect_bthci_evt_number_of_completed_data_blocks(ptr noundef %0, ptr noundef %1) unnamed_addr #1 {
  %3 = load i32, ptr @hf_bthci_evt_total_num_data_blocks, align 4
  %4 = tail call ptr @proto_tree_add_item(ptr noundef %1, i32 noundef %3, ptr noundef %0, i32 noundef 2, i32 noundef 2, i32 noundef -2147483648)
  %5 = tail call zeroext i8 @tvb_get_uint8(ptr noundef %0, i32 noundef 4)
  %6 = load i32, ptr @hf_bthci_evt_num_handles, align 4
  %7 = tail call ptr @proto_tree_add_item(ptr noundef %1, i32 noundef %6, ptr noundef %0, i32 noundef 4, i32 noundef 1, i32 noundef -2147483648)
  %.not1 = icmp eq i8 %5, 0
  br i1 %.not1, label %._crit_edge, label %.lr.ph

.lr.ph:                                           ; preds = %2, %.lr.ph
  %.03 = phi i8 [ %8, %.lr.ph ], [ %5, %2 ]
  %.0232 = phi i32 [ %17, %.lr.ph ], [ 5, %2 ]
  %8 = add i8 %.03, -1
  %9 = load i32, ptr @hf_bthci_evt_connection_handle, align 4
  %10 = tail call ptr @proto_tree_add_item(ptr noundef %1, i32 noundef %9, ptr noundef %0, i32 noundef %.0232, i32 noundef 2, i32 noundef -2147483648)
  %11 = add nuw nsw i32 %.0232, 2
  %12 = load i32, ptr @hf_bthci_evt_num_compl_packets, align 4
  %13 = tail call ptr @proto_tree_add_item(ptr noundef %1, i32 noundef %12, ptr noundef %0, i32 noundef %11, i32 noundef 2, i32 noundef -2147483648)
  %14 = add nuw nsw i32 %.0232, 4
  %15 = load i32, ptr @hf_bthci_evt_num_compl_blocks, align 4
  %16 = tail call ptr @proto_tree_add_item(ptr noundef %1, i32 noundef %15, ptr noundef %0, i32 noundef %14, i32 noundef 2, i32 noundef -2147483648)
  %17 = add nuw nsw i32 %.0232, 6
  %.not = icmp eq i8 %8, 0
  br i1 %.not, label %._crit_edge, label %.lr.ph, !llvm.loop !30

._crit_edge:                                      ; preds = %.lr.ph, %2
  %.023.lcssa = phi i32 [ 5, %2 ], [ %17, %.lr.ph ]
  ret i32 %.023.lcssa
}